target datalayout = "e-m:e-p270:32:32-p271:32:32-p272:64:64-i64:64-i128:128-f80:128-n8:16:32:64-S128"
target triple = "x86_64-pc-linux-gnu"

%struct.st_str_end_key = type { ptr, ptr }

; Function Attrs: nounwind sspstrong uwtable
define internal i64 @str_end_hash(i64 noundef %0) #0 {
  %2 = alloca i64, align 8
  %3 = alloca ptr, align 8
  %4 = alloca ptr, align 8
  %5 = alloca i64, align 8
  store i64 %0, ptr %2, align 8, !tbaa !15
  call void @llvm.lifetime.start.p0(i64 8, ptr %3) #13
  %6 = load i64, ptr %2, align 8, !tbaa !15
  %7 = inttoptr i64 %6 to ptr
  store ptr %7, ptr %3, align 8, !tbaa !12
  call void @llvm.lifetime.start.p0(i64 8, ptr %4) #13
  call void @llvm.lifetime.start.p0(i64 8, ptr %5) #13
  store i64 0, ptr %5, align 8, !tbaa !15
  %8 = load ptr, ptr %3, align 8, !tbaa !12
  %9 = getelementptr inbounds nuw %struct.st_str_end_key, ptr %8, i32 0, i32 0
  %10 = load ptr, ptr %9, align 8, !tbaa !20
  store ptr %10, ptr %4, align 8, !tbaa !7
  br label %11

11:                                               ; preds = %17, %1
  %12 = load ptr, ptr %4, align 8, !tbaa !7
  %13 = load ptr, ptr %3, align 8, !tbaa !12
  %14 = getelementptr inbounds nuw %struct.st_str_end_key, ptr %13, i32 0, i32 1
  %15 = load ptr, ptr %14, align 8, !tbaa !18
  %16 = icmp ult ptr %12, %15
  br i1 %16, label %17, label %26

17:                                               ; preds = %11
  %18 = load i64, ptr %5, align 8, !tbaa !15
  %19 = mul i64 %18, 997
  %20 = load ptr, ptr %4, align 8, !tbaa !7
  %21 = getelementptr i8, ptr %20, i32 1
  store ptr %21, ptr %4, align 8, !tbaa !7
  %22 = load i8, ptr %20, align 1, !tbaa !17
  %23 = zext i8 %22 to i32
  %24 = sext i32 %23 to i64
  %25 = add i64 %19, %24
  store i64 %25, ptr %5, align 8, !tbaa !15
  br label %11, !llvm.loop !23

26:                                               ; preds = %11
  %27 = load i64, ptr %5, align 8, !tbaa !15
  %28 = load i64, ptr %5, align 8, !tbaa !15
  %29 = lshr i64 %28, 5
  %30 = add i64 %27, %29
  call void @llvm.lifetime.end.p0(i64 8, ptr %5) #13
  call void @llvm.lifetime.end.p0(i64 8, ptr %4) #13
  call void @llvm.lifetime.end.p0(i64 8, ptr %3) #13
  ret i64 %30
}