; Function Attrs: nofree norecurse nosync nounwind sspstrong memory(read, inaccessiblemem: none) uwtable
define internal i64 @str_end_hash(i64 noundef %0) #6 {
  %2 = inttoptr i64 %0 to ptr
  %3 = load ptr, ptr %2, align 8, !tbaa !17
  %4 = getelementptr inbounds nuw i8, ptr %2, i64 8
  %5 = load ptr, ptr %4, align 8, !tbaa !14
  %6 = icmp ult ptr %3, %5
  br i1 %6, label %.lr.ph, label %._crit_edge

.lr.ph:                                           ; preds = %1, %.lr.ph
  %.09 = phi i64 [ %11, %.lr.ph ], [ 0, %1 ]
  %.078 = phi ptr [ %8, %.lr.ph ], [ %3, %1 ]
  %7 = mul i64 %.09, 997
  %8 = getelementptr i8, ptr %.078, i64 1
  %9 = load i8, ptr %.078, align 1, !tbaa !13
  %10 = zext i8 %9 to i64
  %11 = add i64 %7, %10
  %exitcond.not = icmp eq ptr %8, %5
  br i1 %exitcond.not, label %._crit_edge, label %.lr.ph, !llvm.loop !20

._crit_edge:                                      ; preds = %.lr.ph, %1
  %.0.lcssa = phi i64 [ 0, %1 ], [ %11, %.lr.ph ]
  %12 = lshr i64 %.0.lcssa, 5
  %13 = add i64 %12, %.0.lcssa
  ret i64 %13
}